Certificate:
    Data:
        Version: 3 (0x2)
        Serial Number: 1306442954 (0x4ddebcca)
    Signature Algorithm: sha1WithRSAEncryption
        Issuer: C=PL, ST=Lubelskie, L=Lublin, O=Caynax, OU=Caynax, CN=Caynax
        Validity
            Not Before: May 26 20:49:14 2011 GMT
            Not After : May 18 20:49:14 2041 GMT
        Subject: C=PL, ST=Lubelskie, L=Lublin, O=Caynax, OU=Caynax, CN=Caynax
        Subject Public Key Info:
            Public Key Algorithm: rsaEncryption
                Public-Key: (1024 bit)
                Modulus:
                    00:90:82:57:85:db:d6:35:4f:11:c4:c3:46:af:5e:
                    33:99:f8:2d:c0:ea:dc:c4:5a:7a:cb:19:38:c0:14:
                    5e:d9:2a:cc:c5:37:b8:ff:d5:0e:65:b2:d4:53:9c:
                    ec:a0:8f:53:90:67:71:4a:29:91:3e:7c:92:0e:6c:
                    70:1e:90:55:06:9c:4c:17:75:b2:87:42:0d:1d:cd:
                    f0:28:da:6b:21:84:06:e6:e2:c0:a7:97:91:68:7e:
                    39:94:6a:93:18:4e:f7:d0:b2:bf:eb:20:81:3d:a8:
                    e5:70:8c:98:5d:15:8e:32:05:5b:b4:81:01:97:b7:
                    c6:89:9d:54:ee:8d:af:3d:ad
                Exponent: 65537 (0x10001)
    Signature Algorithm: sha1WithRSAEncryption
         19:ca:b3:d8:69:f0:93:83:c6:3e:ec:10:a3:a3:56:2d:d1:e3:
         3b:47:a5:30:41:7d:03:ac:04:2f:4a:85:91:f0:57:ff:6c:a1:
         d5:a4:af:3a:d8:a0:3e:b8:3f:a4:3b:4b:2c:06:e7:e0:30:9d:
         23:94:38:8d:b1:25:af:55:3f:3b:e9:5a:16:b8:92:f4:d8:b5:
         ff:b1:15:79:f0:f1:b8:4a:9b:4b:77:92:73:17:59:05:31:64:
         4e:e1:63:63:d8:82:e0:53:ff:fe:8c:bc:8c:8c:80:b8:4c:a9:
         e3:e9:3d:c9:f4:5a:63:b6:f2:57:d8:64:75:c0:a2:61:13:a1:
         56:89
-----BEGIN CERTIFICATE-----
MIICQTCCAaqgAwIBAgIETd68yjANBgkqhkiG9w0BAQUFADBlMQswCQYDVQQGEwJQ
TDESMBAGA1UECBMJTHViZWxza2llMQ8wDQYDVQQHEwZMdWJsaW4xDzANBgNVBAoT
BkNheW5heDEPMA0GA1UECxMGQ2F5bmF4MQ8wDQYDVQQDEwZDYXluYXgwHhcNMTEw
NTI2MjA0OTE0WhcNNDEwNTE4MjA0OTE0WjBlMQswCQYDVQQGEwJQTDESMBAGA1UE
CBMJTHViZWxza2llMQ8wDQYDVQQHEwZMdWJsaW4xDzANBgNVBAoTBkNheW5heDEP
MA0GA1UECxMGQ2F5bmF4MQ8wDQYDVQQDEwZDYXluYXgwgZ8wDQYJKoZIhvcNAQEB
BQADgY0AMIGJAoGBAJCCV4Xb1jVPEcTDRq9eM5n4LcDq3MRaessZOMAUXtkqzMU3
uP/VDmWy1FOc7KCPU5BncUopkT58kg5scB6QVQacTBd1sodCDR3N8CjaayGEBubi
wKeXkWh+OZRqkxhO99Cyv+sggT2o5XCMmF0VjjIFW7SBAZe3xomdVO6Nrz2tAgMB
AAEwDQYJKoZIhvcNAQEFBQADgYEAGcqz2Gnwk4PGPuwQo6NWLdHjO0elMEF9A6wE
L0qFkfBX/2yh1aSvOtigPrg/pDtLLAbn4DCdI5Q4jbElr1U/O+laFriS9Ni1/7EV
efDxuEqbS3eScxdZBTFkTuFjY9iC4FP//oy8jIyAuEyp4+k9yfRaY7byV9hkdcCi
YROhVok=
-----END CERTIFICATE-----

