Certificate:
    Data:
        Version: 3 (0x2)
        Serial Number: 1466106147 (0x57630123)
    Signature Algorithm: sha256WithRSAEncryption
        Issuer: emailAddress=info@trainerroad.com, C=US, ST=Nevada, L=Reno, O=TrainerRoad, OU=DevOps, CN=com.trainerroad.android
        Validity
            Not Before: Jun 16 19:43:27 2016 GMT
            Not After : Jun 16 19:43:27 2036 GMT
        Subject: emailAddress=info@trainerroad.com, C=US, ST=Nevada, L=Reno, O=TrainerRoad, OU=DevOps, CN=com.trainerroad.android
        Subject Public Key Info:
            Public Key Algorithm: rsaEncryption
                Public-Key: (2048 bit)
                Modulus:
                    00:c4:f9:99:79:c1:c6:2a:11:2d:47:e7:62:61:a3:
                    77:08:ee:04:70:71:05:62:55:19:0c:46:8a:fe:fb:
                    26:1c:7b:1d:a1:a6:45:3c:30:30:73:d7:3d:96:d8:
                    3d:dc:43:88:78:da:c6:b1:6e:c6:ca:e2:4a:50:32:
                    9e:82:03:d2:8f:c0:51:e3:03:33:96:0c:47:c4:56:
                    fb:37:78:c8:05:be:b6:9a:ab:f3:45:fd:da:0f:c0:
                    6d:ed:81:9b:45:18:b8:69:36:d8:4b:ba:8b:e2:8a:
                    6b:99:ee:36:08:8f:ff:59:d5:05:a3:cf:0c:2a:a8:
                    12:4e:e4:ad:f5:ac:c4:39:ef:1b:c4:4c:01:72:d3:
                    9f:32:2c:b6:a1:2d:c4:17:42:9b:df:e6:73:f3:dd:
                    02:18:c3:13:7a:d5:58:ab:28:2f:79:bf:5e:85:a1:
                    a4:49:78:6d:26:08:8f:a0:a2:ec:5c:fb:eb:ff:69:
                    d8:82:33:4c:43:e5:68:db:88:29:1b:5c:0f:5b:5f:
                    1d:a7:69:d9:44:76:73:d8:3f:58:28:94:ea:2a:31:
                    6c:e2:5d:e4:83:c3:ee:65:ac:24:ed:30:c2:9c:07:
                    e5:ae:23:c6:da:41:fe:a8:a3:2a:da:c7:7c:c8:6a:
                    da:2a:7e:f3:bb:60:7e:54:e2:cc:b2:9b:31:6e:87:
                    33:cf
                Exponent: 65537 (0x10001)
    Signature Algorithm: sha256WithRSAEncryption
         41:d5:1c:17:5d:80:68:ea:56:c3:03:f1:84:ee:a9:15:cf:ad:
         fa:9f:51:7f:ac:3b:bf:17:62:b1:23:cd:6e:9f:6a:54:9b:2d:
         f8:cd:73:46:f9:5a:26:c4:3c:dd:31:93:68:a7:9e:62:4f:3a:
         92:fe:98:19:67:cd:d4:3c:3a:63:82:3d:0e:30:ce:b5:ad:26:
         c7:7a:f3:50:3f:50:75:49:55:cb:18:53:b7:38:bc:ec:90:e9:
         6f:00:be:91:05:47:33:d6:63:61:11:72:cd:5d:fc:bc:11:c7:
         61:39:ff:b2:c8:eb:13:7a:07:98:2b:55:98:25:82:b8:98:9c:
         34:8e:39:36:5c:40:a5:4d:ef:98:71:b7:31:6a:5c:7f:1e:c0:
         e7:ee:84:5b:30:a9:7d:4a:a0:f3:b3:2e:15:45:7e:44:4e:bb:
         cd:da:19:09:3e:19:2d:d3:17:a5:03:28:e4:90:e3:aa:d3:6a:
         73:3c:77:b3:2a:50:4a:8d:32:d3:f1:2f:34:5f:a7:c3:fc:bb:
         bb:e1:50:91:a0:6f:18:0d:12:ee:be:ee:91:ea:5f:b0:74:b9:
         9b:48:e4:9c:71:fc:54:b6:4d:66:d1:80:5d:6f:1b:a0:e0:e5:
         74:0f:3b:1d:d0:1f:ed:00:12:3a:ad:b7:ce:84:14:a0:9c:22:
         d4:4c:f3:48
-----BEGIN CERTIFICATE-----
MIIDtDCCApygAwIBAgIEV2MBIzANBgkqhkiG9w0BAQsFADCBmzEjMCEGCSqGSIb3
DQEJARYUaW5mb0B0cmFpbmVycm9hZC5jb20xCzAJBgNVBAYTAlVTMQ8wDQYDVQQI
DAZOZXZhZGExDTALBgNVBAcMBFJlbm8xFDASBgNVBAoMC1RyYWluZXJSb2FkMQ8w
DQYDVQQLDAZEZXZPcHMxIDAeBgNVBAMMF2NvbS50cmFpbmVycm9hZC5hbmRyb2lk
MB4XDTE2MDYxNjE5NDMyN1oXDTM2MDYxNjE5NDMyN1owgZsxIzAhBgkqhkiG9w0B
CQEWFGluZm9AdHJhaW5lcnJvYWQuY29tMQswCQYDVQQGEwJVUzEPMA0GA1UECAwG
TmV2YWRhMQ0wCwYDVQQHDARSZW5vMRQwEgYDVQQKDAtUcmFpbmVyUm9hZDEPMA0G
A1UECwwGRGV2T3BzMSAwHgYDVQQDDBdjb20udHJhaW5lcnJvYWQuYW5kcm9pZDCC
ASIwDQYJKoZIhvcNAQEBBQADggEPADCCAQoCggEBAMT5mXnBxioRLUfnYmGjdwju
BHBxBWJVGQxGiv77Jhx7HaGmRTwwMHPXPZbYPdxDiHjaxrFuxsriSlAynoID0o/A
UeMDM5YMR8RW+zd4yAW+tpqr80X92g/Abe2Bm0UYuGk22Eu6i+KKa5nuNgiP/1nV
BaPPDCqoEk7krfWsxDnvG8RMAXLTnzIstqEtxBdCm9/mc/PdAhjDE3rVWKsoL3m/
XoWhpEl4bSYIj6Ci7Fz76/9p2IIzTEPlaNuIKRtcD1tfHadp2UR2c9g/WCiU6iox
bOJd5IPD7mWsJO0wwpwH5a4jxtpB/qijKtrHfMhq2ip+87tgflTizLKbMW6HM88C
AwEAATANBgkqhkiG9w0BAQsFAAOCAQEAQdUcF12AaOpWwwPxhO6pFc+t+p9Rf6w7
vxdisSPNbp9qVJst+M1zRvlaJsQ83TGTaKeeYk86kv6YGWfN1Dw6Y4I9DjDOta0m
x3rzUD9QdUlVyxhTtzi87JDpbwC+kQVHM9ZjYRFyzV38vBHHYTn/ssjrE3oHmCtV
mCWCuJicNI45NlxApU3vmHG3MWpcfx7A5+6EWzCpfUqg87MuFUV+RE67zdoZCT4Z
LdMXpQMo5JDjqtNqczx3sypQSo0y0/EvNF+nw/y7u+FQkaBvGA0S7r7ukepfsHS5
m0jknHH8VLZNZtGAXW8boODldA87HdAf7QASOq23zoQUoJwi1EzzSA==
-----END CERTIFICATE-----

