Certificate:
    Data:
        Version: 1 (0x0)
        Serial Number: 1225067976 (0x49050dc8)
    Signature Algorithm: md5WithRSAEncryption
        Issuer: C=US, ST=New York, L=New York, O=Secret Industries, OU=FatSecret, CN=Rodney Moses
        Validity
            Not Before: Oct 27 00:39:36 2008 GMT
            Not After : Mar 14 00:39:36 2036 GMT
        Subject: C=US, ST=New York, L=New York, O=Secret Industries, OU=FatSecret, CN=Rodney Moses
        Subject Public Key Info:
            Public Key Algorithm: rsaEncryption
                Public-Key: (1024 bit)
                Modulus:
                    00:b0:b8:d1:82:8d:1c:94:c8:b7:b8:d9:2b:7c:8d:
                    fd:6b:20:8f:c0:72:c7:15:82:79:6f:79:0a:4f:21:
                    24:52:66:a1:ed:16:ec:c5:7b:0a:d8:1c:f5:16:3f:
                    f4:7e:99:bc:9c:23:3c:be:5c:a2:db:51:91:c1:20:
                    df:33:6f:92:10:fe:43:43:ae:b6:8b:9c:44:57:30:
                    19:77:fb:23:42:a0:01:a0:99:6c:b4:49:f9:e3:bd:
                    bc:40:5e:3d:a4:3f:6a:22:43:cf:3d:81:63:ca:84:
                    1c:c4:94:6c:cd:da:df:7d:0d:33:01:88:e2:ec:36:
                    55:a6:15:b7:6e:8c:ac:ad:bb
                Exponent: 65537 (0x10001)
    Signature Algorithm: md5WithRSAEncryption
         77:fd:50:41:01:72:cc:2f:f5:13:06:1f:e9:07:7f:d4:53:17:
         88:a9:90:94:c6:05:e8:db:58:51:26:b6:29:e4:ad:7a:28:be:
         17:d4:f5:b5:ba:ed:19:38:b0:93:5a:e6:71:41:f3:8c:c8:f3:
         75:4c:ed:87:15:8f:00:d1:e8:34:29:d4:9f:62:d8:6e:8b:44:
         cf:98:85:e1:74:33:d3:6e:3e:ca:fb:b7:b6:cb:de:a2:86:69:
         c2:f7:2b:1c:e5:b9:f6:40:ce:95:4b:9a:a7:ba:4c:88:6f:0d:
         40:f0:19:bb:c0:de:1d:a0:63:76:34:e2:f3:84:a3:80:cd:52:
         66:15
-----BEGIN CERTIFICATE-----
MIICZjCCAc8CBEkFDcgwDQYJKoZIhvcNAQEEBQAwejELMAkGA1UEBhMCVVMxETAP
BgNVBAgTCE5ldyBZb3JrMREwDwYDVQQHEwhOZXcgWW9yazEaMBgGA1UEChMRU2Vj
cmV0IEluZHVzdHJpZXMxEjAQBgNVBAsTCUZhdFNlY3JldDEVMBMGA1UEAxMMUm9k
bmV5IE1vc2VzMB4XDTA4MTAyNzAwMzkzNloXDTM2MDMxNDAwMzkzNlowejELMAkG
A1UEBhMCVVMxETAPBgNVBAgTCE5ldyBZb3JrMREwDwYDVQQHEwhOZXcgWW9yazEa
MBgGA1UEChMRU2VjcmV0IEluZHVzdHJpZXMxEjAQBgNVBAsTCUZhdFNlY3JldDEV
MBMGA1UEAxMMUm9kbmV5IE1vc2VzMIGfMA0GCSqGSIb3DQEBAQUAA4GNADCBiQKB
gQCwuNGCjRyUyLe42St8jf1rII/AcscVgnlveQpPISRSZqHtFuzFewrYHPUWP/R+
mbycIzy+XKLbUZHBIN8zb5IQ/kNDrraLnERXMBl3+yNCoAGgmWy0SfnjvbxAXj2k
P2oiQ889gWPKhBzElGzN2t99DTMBiOLsNlWmFbdujKytuwIDAQABMA0GCSqGSIb3
DQEBBAUAA4GBAHf9UEEBcswv9RMGH+kHf9RTF4ipkJTGBejbWFEmtinkrXoovhfU
9bW67Rk4sJNa5nFB84zI83VM7YcVjwDR6DQp1J9i2G6LRM+YheF0M9NuPsr7t7bL
3qKGacL3KxzlufZAzpVLmqe6TIhvDUDwGbvA3h2gY3Y04vOEo4DNUmYV
-----END CERTIFICATE-----

