Certificate:
    Data:
        Version: 3 (0x2)
        Serial Number: 1354216971 (0x50b7b60b)
    Signature Algorithm: sha1WithRSAEncryption
        Issuer: C=US, ST=CT, L=Bloomfield, O=Cigna Corporation, OU=Health Services, CN=Mohammad Quraishi
        Validity
            Not Before: Nov 29 19:22:51 2012 GMT
            Not After : Nov 23 19:22:51 2037 GMT
        Subject: C=US, ST=CT, L=Bloomfield, O=Cigna Corporation, OU=Health Services, CN=Mohammad Quraishi
        Subject Public Key Info:
            Public Key Algorithm: rsaEncryption
                Public-Key: (1024 bit)
                Modulus:
                    00:9f:12:7f:bc:43:41:5b:5c:98:a7:31:37:2f:19:
                    f5:09:0b:46:75:5a:79:0a:d9:21:e5:0a:fd:60:db:
                    4a:e4:d7:ff:4e:61:53:35:ad:fb:97:b6:8f:da:21:
                    a1:ea:59:66:bb:e5:a2:7b:2b:8e:6a:b5:c1:cb:e6:
                    c7:dc:02:9a:47:ab:a6:e2:53:36:4f:98:53:d5:cc:
                    3c:79:52:37:39:ea:5e:f4:94:12:0e:fe:75:9d:b9:
                    40:d3:ac:23:1b:4b:b6:88:be:4f:49:ab:4a:7b:b4:
                    e9:37:05:cf:88:0d:d0:9a:47:f5:15:c1:1d:be:d9:
                    2c:6c:24:05:db:ab:b0:1e:51
                Exponent: 65537 (0x10001)
    Signature Algorithm: sha1WithRSAEncryption
         51:98:97:d8:24:77:5f:17:94:dc:89:e3:5a:25:2b:84:27:3a:
         81:a1:9b:78:cb:02:6b:1f:00:c2:36:1a:76:24:04:b3:cf:4d:
         1f:43:6f:13:d6:2e:90:2d:1a:33:c0:62:0f:4d:cb:e7:b4:70:
         f6:ff:06:42:ba:2c:17:81:e4:89:6b:08:fa:23:af:00:1b:9a:
         d6:62:d0:b3:8c:9f:c7:bb:3d:72:23:c4:31:6d:e6:db:8e:4c:
         ee:8e:76:b5:0d:45:d5:fb:aa:19:3f:7b:5d:13:62:c2:6b:f6:
         74:d8:e2:d0:4d:08:5b:49:3d:06:21:fe:3c:74:25:f5:ab:bb:
         ad:80
-----BEGIN CERTIFICATE-----
MIICezCCAeSgAwIBAgIEULe2CzANBgkqhkiG9w0BAQUFADCBgTELMAkGA1UEBhMC
VVMxCzAJBgNVBAgTAkNUMRMwEQYDVQQHEwpCbG9vbWZpZWxkMRowGAYDVQQKExFD
aWduYSBDb3Jwb3JhdGlvbjEYMBYGA1UECxMPSGVhbHRoIFNlcnZpY2VzMRowGAYD
VQQDExFNb2hhbW1hZCBRdXJhaXNoaTAeFw0xMjExMjkxOTIyNTFaFw0zNzExMjMx
OTIyNTFaMIGBMQswCQYDVQQGEwJVUzELMAkGA1UECBMCQ1QxEzARBgNVBAcTCkJs
b29tZmllbGQxGjAYBgNVBAoTEUNpZ25hIENvcnBvcmF0aW9uMRgwFgYDVQQLEw9I
ZWFsdGggU2VydmljZXMxGjAYBgNVBAMTEU1vaGFtbWFkIFF1cmFpc2hpMIGfMA0G
CSqGSIb3DQEBAQUAA4GNADCBiQKBgQCfEn+8Q0FbXJinMTcvGfUJC0Z1WnkK2SHl
Cv1g20rk1/9OYVM1rfuXto/aIaHqWWa75aJ7K45qtcHL5sfcAppHq6biUzZPmFPV
zDx5Ujc56l70lBIO/nWduUDTrCMbS7aIvk9Jq0p7tOk3Bc+IDdCaR/UVwR2+2Sxs
JAXbq7AeUQIDAQABMA0GCSqGSIb3DQEBBQUAA4GBAFGYl9gkd18XlNyJ41olK4Qn
OoGhm3jLAmsfAMI2GnYkBLPPTR9DbxPWLpAtGjPAYg9Ny+e0cPb/BkK6LBeB5Ilr
CPojrwAbmtZi0LOMn8e7PXIjxDFt5tuOTO6OdrUNRdX7qhk/e10TYsJr9nTY4tBN
CFtJPQYh/jx0JfWru62A
-----END CERTIFICATE-----

