Certificate:
    Data:
        Version: 3 (0x2)
        Serial Number:
            93:96:e7:fb:fc:50:6c:55:a6:3b:61:b5:96:a2:36:12:fe:cb:9a:f0
    Signature Algorithm: sha256WithRSAEncryption
        Issuer: C=US, ST=California, L=Mountain View, O=Google Inc., OU=Android, CN=Android
        Validity
            Not Before: Apr  3 08:11:57 2020 GMT
            Not After : Apr  3 08:11:57 2050 GMT
        Subject: C=US, ST=California, L=Mountain View, O=Google Inc., OU=Android, CN=Android
        Subject Public Key Info:
            Public Key Algorithm: rsaEncryption
                Public-Key: (4096 bit)
                Modulus:
                    00:b5:81:88:15:32:dc:ac:9a:c6:b2:f8:76:50:d2:
                    86:c7:23:96:19:c7:bc:76:d5:fb:55:62:8d:42:80:
                    10:36:44:bb:ee:da:21:37:e4:1b:83:a9:34:05:cc:
                    a2:25:29:b5:68:9d:1a:54:ec:c7:72:86:f4:c4:47:
                    47:d1:bd:28:b9:a9:d9:e3:39:99:c3:23:de:13:18:
                    e4:d3:ec:99:57:cf:cd:4a:20:68:3e:49:b6:83:fa:
                    f4:e8:fa:ef:7e:8b:a1:2b:0a:bc:c7:b5:89:82:eb:
                    1a:58:ec:43:ee:5b:f8:85:30:03:dd:6b:05:ad:d5:
                    70:d4:c6:d9:fa:a0:e0:4e:eb:c7:6b:13:b6:b7:64:
                    34:a8:0d:54:b5:fe:9a:bf:a9:af:5b:a0:8d:e5:26:
                    08:01:9f:af:9a:8a:b6:60:6e:53:3a:db:87:c3:66:
                    89:dc:19:13:2d:17:fc:90:0e:d8:78:d2:40:3b:5b:
                    63:65:76:e0:b3:51:7f:c4:4f:e3:a7:be:7e:71:6b:
                    dd:bc:73:1c:fe:a4:d6:98:8b:d8:4a:ff:0e:56:3c:
                    7e:46:e6:45:8a:5f:5d:c5:cc:95:3c:d3:97:9f:ff:
                    7f:15:6c:ce:ab:83:48:fb:63:b6:34:6c:41:76:4c:
                    4f:f0:cf:d5:e5:53:03:db:39:b5:57:7c:f9:5a:4f:
                    16:e2:d8:95:6d:94:90:be:1d:a9:60:67:5f:3d:e2:
                    85:63:e6:ee:05:fc:03:40:86:45:dc:75:24:e5:0b:
                    e4:ef:9d:77:db:a0:a6:68:9d:7a:b5:f6:63:ad:d7:
                    5a:cc:c7:7a:cd:b5:c4:c4:3d:e3:fb:ef:35:dd:de:
                    41:6f:3d:2e:5c:b4:41:3d:b9:eb:f8:71:f6:35:78:
                    52:94:0c:06:9a:40:6c:c5:5f:33:b0:6b:d5:d8:c7:
                    cd:1e:bd:f9:02:4a:b6:a4:e1:0f:14:f5:fb:2e:b1:
                    f2:77:67:d4:ba:8e:24:7d:f8:c2:26:4b:d1:74:b1:
                    79:5a:fa:4f:31:15:09:78:13:d0:d0:88:d0:17:67:
                    5f:bd:4a:78:6d:83:97:f9:bf:d9:11:bd:9b:9e:20:
                    75:de:c4:bf:b5:92:2d:de:0e:47:d1:26:c7:dc:bb:
                    33:26:3c:1c:19:87:78:aa:db:1c:05:98:a2:ea:74:
                    50:72:69:ce:d5:7d:3a:c8:b6:67:be:ce:ad:da:3c:
                    95:65:46:ac:74:25:d7:21:c1:d2:23:b1:1f:fa:14:
                    7b:8e:65:38:bb:a7:05:45:77:d9:b0:04:45:2f:a7:
                    0f:5a:69:4c:28:b2:ee:2c:42:8d:10:5d:84:c5:3f:
                    94:5b:ce:62:d4:be:5f:c5:54:03:28:06:cc:60:65:
                    dc:b8:7b
                Exponent: 65537 (0x10001)
        X509v3 extensions:
            X509v3 Basic Constraints: 
                CA:TRUE
    Signature Algorithm: sha256WithRSAEncryption
         40:0c:ae:a0:e5:ec:3c:dd:26:39:f2:0c:d6:3e:e2:ba:b4:d7:
         6f:96:51:1d:a9:9a:13:b8:33:3a:39:0f:41:48:2c:94:dd:1d:
         76:4d:98:5d:7a:1d:f3:52:d1:05:2e:81:20:c7:7a:41:70:36:
         f1:4b:db:91:a4:a6:4e:70:81:be:1e:22:f3:b9:ee:82:79:43:
         54:7e:84:c4:b1:e3:dd:2d:e1:db:df:f9:16:e9:a4:8c:ee:31:
         2a:d2:59:28:f2:d9:c2:da:73:90:20:e7:7d:39:ce:dc:a2:38:
         6a:4f:f1:96:bb:05:9b:c4:65:60:42:c4:00:34:aa:c3:80:25:
         ee:cc:79:6e:11:92:17:4a:5a:82:2f:b0:57:80:6f:66:8b:d7:
         4e:db:5f:55:56:7b:41:2d:06:91:23:08:7b:67:39:a0:69:4d:
         d8:a8:83:18:f3:82:a8:36:b5:8b:cd:d5:15:cf:41:7f:25:dd:
         45:81:9c:3a:5f:59:2f:f6:5a:6d:ad:c8:9d:c2:a3:63:e2:ac:
         d6:12:e1:b9:a0:49:2e:24:35:ff:a2:a2:9a:7f:b0:9d:35:ad:
         32:bb:14:7f:65:fd:fb:1c:a1:23:52:c1:82:69:ee:45:d1:84:
         88:72:c5:a6:60:d5:50:89:32:65:7b:af:49:f3:22:9e:cb:79:
         48:29:93:34:cd:87:83:35:5d:7b:71:ad:c2:94:44:0c:38:42:
         d8:d3:19:a8:4c:2b:ae:f7:c8:40:01:ef:64:3c:3c:0c:32:37:
         ee:ce:87:c0:23:53:64:35:e2:19:de:ce:35:62:2f:18:40:72:
         4d:0a:a8:0d:43:c6:7c:8c:ec:c7:a8:ce:b1:a0:70:a9:8c:83:
         cb:a4:59:c0:e9:92:57:80:ad:fa:b6:e2:d8:7f:da:42:0f:62:
         57:23:1f:39:7b:5b:12:84:14:8e:f0:35:8c:50:e8:9a:6c:da:
         07:b1:44:ee:f2:f0:5a:ba:f6:21:e0:08:02:a5:2c:ca:02:44:
         b8:f1:75:6d:7f:23:bd:1a:ce:02:9d:81:a7:51:31:bd:24:0b:
         c6:c8:3c:72:d3:2a:fc:00:65:d4:89:d8:2d:24:89:de:01:99:
         61:44:34:d3:91:8d:22:91:af:6d:f1:e3:06:1b:cb:89:57:22:
         ae:f2:c4:86:b3:2b:b1:07:24:3e:36:d4:31:64:df:0f:b8:cd:
         54:63:19:c4:36:9a:3a:1b:88:64:2d:38:63:d5:33:1c:93:4d:
         33:de:fd:fe:21:d2:30:a3:ef:ff:6c:72:a1:61:58:1e:e1:20:
         08:7f:70:47:64:9e:9c:00:5a:b1:5f:30:8d:4e:ef:ae:34:b2:
         68:6a:68:89:49:69:b1:65
-----BEGIN CERTIFICATE-----
MIIFiTCCA3GgAwIBAgIVAJOW5/v8UGxVpjthtZaiNhL+y5rwMA0GCSqGSIb3DQEB
CwUAMHQxCzAJBgNVBAYTAlVTMRMwEQYDVQQIEwpDYWxpZm9ybmlhMRYwFAYDVQQH
Ew1Nb3VudGFpbiBWaWV3MRQwEgYDVQQKEwtHb29nbGUgSW5jLjEQMA4GA1UECxMH
QW5kcm9pZDEQMA4GA1UEAxMHQW5kcm9pZDAgFw0yMDA0MDMwODExNTdaGA8yMDUw
MDQwMzA4MTE1N1owdDELMAkGA1UEBhMCVVMxEzARBgNVBAgTCkNhbGlmb3JuaWEx
FjAUBgNVBAcTDU1vdW50YWluIFZpZXcxFDASBgNVBAoTC0dvb2dsZSBJbmMuMRAw
DgYDVQQLEwdBbmRyb2lkMRAwDgYDVQQDEwdBbmRyb2lkMIICIjANBgkqhkiG9w0B
AQEFAAOCAg8AMIICCgKCAgEAtYGIFTLcrJrGsvh2UNKGxyOWGce8dtX7VWKNQoAQ
NkS77tohN+Qbg6k0BcyiJSm1aJ0aVOzHcob0xEdH0b0ouanZ4zmZwyPeExjk0+yZ
V8/NSiBoPkm2g/r06PrvfouhKwq8x7WJgusaWOxD7lv4hTAD3WsFrdVw1MbZ+qDg
TuvHaxO2t2Q0qA1Utf6av6mvW6CN5SYIAZ+vmoq2YG5TOtuHw2aJ3BkTLRf8kA7Y
eNJAO1tjZXbgs1F/xE/jp75+cWvdvHMc/qTWmIvYSv8OVjx+RuZFil9dxcyVPNOX
n/9/FWzOq4NI+2O2NGxBdkxP8M/V5VMD2zm1V3z5Wk8W4tiVbZSQvh2pYGdfPeKF
Y+buBfwDQIZF3HUk5Qvk751326CmaJ16tfZjrddazMd6zbXExD3j++813d5Bbz0u
XLRBPbnr+HH2NXhSlAwGmkBsxV8zsGvV2MfNHr35Akq2pOEPFPX7LrHyd2fUuo4k
ffjCJkvRdLF5WvpPMRUJeBPQ0IjQF2dfvUp4bYOX+b/ZEb2bniB13sS/tZIt3g5H
0SbH3LszJjwcGYd4qtscBZii6nRQcmnO1X06yLZnvs6t2jyVZUasdCXXIcHSI7Ef
+hR7jmU4u6cFRXfZsARFL6cPWmlMKLLuLEKNEF2ExT+UW85i1L5fxVQDKAbMYGXc
uHsCAwEAAaMQMA4wDAYDVR0TBAUwAwEB/zANBgkqhkiG9w0BAQsFAAOCAgEAQAyu
oOXsPN0mOfIM1j7iurTXb5ZRHamaE7gzOjkPQUgslN0ddk2YXXod81LRBS6BIMd6
QXA28UvbkaSmTnCBvh4i87nugnlDVH6ExLHj3S3h29/5FumkjO4xKtJZKPLZwtpz
kCDnfTnO3KI4ak/xlrsFm8RlYELEADSqw4Al7sx5bhGSF0pagi+wV4BvZovXTttf
VVZ7QS0GkSMIe2c5oGlN2KiDGPOCqDa1i83VFc9BfyXdRYGcOl9ZL/Zaba3IncKj
Y+Ks1hLhuaBJLiQ1/6Kimn+wnTWtMrsUf2X9+xyhI1LBgmnuRdGEiHLFpmDVUIky
ZXuvSfMinst5SCmTNM2HgzVde3GtwpREDDhC2NMZqEwrrvfIQAHvZDw8DDI37s6H
wCNTZDXiGd7ONWIvGEByTQqoDUPGfIzsx6jOsaBwqYyDy6RZwOmSV4Ct+rbi2H/a
Qg9iVyMfOXtbEoQUjvA1jFDommzaB7FE7vLwWrr2IeAIAqUsygJEuPF1bX8jvRrO
Ap2Bp1ExvSQLxsg8ctMq/ABl1InYLSSJ3gGZYUQ005GNIpGvbfHjBhvLiVcirvLE
hrMrsQckPjbUMWTfD7jNVGMZxDaaOhuIZC04Y9UzHJNNM979/iHSMKPv/2xyoWFY
HuEgCH9wR2SenABasV8wjU7vrjSyaGpoiUlpsWU=
-----END CERTIFICATE-----

