Certificate:
    Data:
        Version: 3 (0x2)
        Serial Number:
            0f:08:b5:71:39:2c:66:8c:b5:d1:d3:b8:7c:d9:16:42:6e:3c:dc:4b
    Signature Algorithm: sha256WithRSAEncryption
        Issuer: C=US, ST=California, L=Mountain View, O=Google Inc., OU=Android, CN=Android
        Validity
            Not Before: Dec 22 10:19:55 2018 GMT
            Not After : Dec 22 10:19:55 2048 GMT
        Subject: C=US, ST=California, L=Mountain View, O=Google Inc., OU=Android, CN=Android
        Subject Public Key Info:
            Public Key Algorithm: rsaEncryption
                Public-Key: (4096 bit)
                Modulus:
                    00:d5:cd:76:52:3a:bf:18:22:77:32:ba:48:c1:d1:
                    d1:81:52:0e:25:84:1c:81:a9:0a:94:7c:32:12:43:
                    90:c0:2d:eb:7c:86:8a:14:dd:b0:a5:68:21:64:69:
                    66:56:84:c3:63:54:af:78:1b:2c:59:bf:f6:17:b9:
                    76:55:c3:66:de:06:03:ca:a9:33:22:71:a1:d1:f7:
                    bd:7b:c2:25:e5:3a:eb:09:5b:ee:58:b7:ed:25:ab:
                    ca:f4:99:c8:96:94:66:bf:3d:77:aa:1e:ce:17:e7:
                    63:fa:ac:1e:0e:bd:e1:56:2a:ed:82:87:94:af:c4:
                    6f:48:23:5e:7b:d4:49:94:eb:70:19:32:6d:93:fc:
                    d0:de:a6:47:a3:bc:c5:31:df:66:ba:f0:a4:14:bb:
                    d3:fd:14:51:e1:9f:30:23:5a:a2:45:fb:6b:f3:58:
                    a8:81:7c:6b:58:f6:a6:95:2d:9d:bf:93:99:dd:82:
                    87:6d:f4:42:ba:c1:fa:b3:dd:fb:5c:5e:b7:1c:37:
                    f7:b7:3a:e7:4a:50:a5:7c:19:1a:45:ed:ff:d9:0a:
                    ac:67:da:c3:dc:9b:d9:08:40:63:0c:5b:56:5c:01:
                    34:13:23:93:07:ec:b1:27:dd:08:06:83:11:5f:53:
                    c8:c2:e6:90:3c:10:bf:7f:12:76:9a:53:6c:f2:4f:
                    b0:ff:65:b4:df:14:e9:8c:23:6f:28:19:14:9d:a0:
                    b6:e0:85:5d:bc:c5:d7:77:a1:e4:f5:53:20:78:98:
                    a7:51:00:3e:60:1b:45:3f:70:14:48:3b:03:c6:3f:
                    67:d1:5f:02:57:ef:15:43:79:a2:f3:6f:7b:ac:cd:
                    6a:0b:32:3e:f5:fc:9f:c4:f4:38:f9:09:42:2e:cb:
                    9d:de:37:d5:19:29:b3:f7:e3:8e:90:5f:f4:86:4b:
                    0c:0a:29:56:5a:42:f6:d5:67:c3:18:16:03:f3:9c:
                    20:a5:48:a3:29:32:18:b3:97:36:45:01:00:1e:fe:
                    d0:30:23:d1:cd:4e:25:ab:fd:77:58:71:30:78:ce:
                    b6:18:0f:43:38:bf:c4:ed:37:dd:41:5a:ed:bd:00:
                    00:ea:3f:95:36:83:88:73:47:58:3f:35:b6:58:ba:
                    a6:b8:24:07:f4:fe:f5:cd:fe:4a:b3:e7:7f:82:54:
                    dd:e3:eb:1f:0a:42:e8:69:98:b7:6b:f6:6e:29:1e:
                    26:0d:d2:02:6b:26:d9:d4:f7:29:68:09:89:7a:81:
                    33:a5:bc:15:50:d4:4c:e6:16:cf:b5:19:78:c1:f2:
                    91:95:cc:2d:f6:a0:04:0e:10:7f:d2:b9:1e:27:c3:
                    9f:a3:de:fc:48:68:6c:f1:22:68:ba:de:67:cc:55:
                    1b:c4:af
                Exponent: 65537 (0x10001)
        X509v3 extensions:
            X509v3 Basic Constraints: 
                CA:TRUE
    Signature Algorithm: sha256WithRSAEncryption
         41:ec:21:e8:b5:6e:b4:a9:78:c6:60:87:12:65:b3:e3:67:70:
         a0:80:3f:13:62:ea:b7:f7:b2:8f:28:97:5b:ff:2a:31:79:42:
         c7:e0:6f:40:bc:70:fa:af:1c:2b:96:29:82:6d:15:2c:e7:96:
         78:cf:f8:84:1a:b1:98:12:40:57:b3:76:77:4f:35:8f:71:ca:
         7d:eb:cd:15:4e:d2:c5:7e:94:1e:a6:e1:da:34:d5:53:fa:f8:
         ef:c8:a3:ea:a6:4c:e5:a5:61:91:9c:30:0e:c2:c3:1e:fd:94:
         e3:e7:19:87:cd:6e:32:f9:99:77:e8:d8:04:af:0c:7c:72:bd:
         17:59:ff:0c:43:03:0a:e2:08:b4:90:f2:94:63:d4:d5:0c:40:
         b6:9d:ac:51:ce:97:b5:74:60:64:37:24:54:50:29:f9:29:c6:
         65:6f:d5:27:bc:37:73:91:1b:fd:3d:da:82:54:a8:27:8b:17:
         d3:00:f7:e2:a0:de:4d:24:8a:92:05:90:a1:44:55:5a:b6:a8:
         68:bd:67:cd:25:75:c4:3a:b7:3f:97:a2:a2:11:15:25:aa:3a:
         2e:48:f1:13:92:af:6d:a2:87:80:e1:5a:d1:6b:b9:9e:ba:70:
         54:11:75:ba:74:87:54:7e:e6:10:7f:99:4f:97:fd:a0:0d:28:
         1f:ed:26:32:b3:f0:36:6c:16:0c:e8:13:2a:19:e8:4b:05:a7:
         9a:75:7f:30:0a:e7:37:d0:84:02:58:c6:00:5b:06:c7:00:51:
         06:e0:57:03:3c:74:d8:a8:a4:c1:fe:70:23:7d:20:d5:04:40:
         b0:97:ff:25:bf:a5:9c:e6:0c:3f:85:bf:9b:f0:b9:55:21:46:
         21:38:e0:f0:90:c3:56:90:9a:13:21:ec:1e:9c:ac:82:5a:f5:
         2c:22:d6:5d:20:ee:f9:77:0c:30:a7:a4:6c:91:d0:ed:6d:ee:
         37:41:ce:4d:ef:d9:79:e9:77:b2:d2:e3:93:a4:9d:1a:4b:5d:
         77:bb:26:74:f9:fa:c8:bb:2b:2a:c5:a9:13:3d:fd:f4:3d:29:
         1b:5c:95:c5:fb:99:ee:41:8d:32:41:2c:1b:7e:a5:b9:59:a0:
         5b:1c:e3:7f:06:e5:7b:07:22:f2:5b:cf:7b:cb:af:20:7a:8f:
         e9:48:5b:ad:d0:0f:27:e6:4c:fa:89:44:0c:bf:37:90:1b:6c:
         ef:8f:8d:c9:c3:6d:52:e5:db:df:a1:40:a1:7d:db:b2:45:d5:
         8c:6c:ed:99:f1:76:81:16:0b:2f:ed:54:11:d8:e8:71:6d:3a:
         19:ef:10:0f:62:b8:93:ac:6f:dc:6f:1c:68:0f:4f:44:10:c0:
         43:bc:c0:d7:90:19:f9:0c
-----BEGIN CERTIFICATE-----
MIIFhjCCA26gAwIBAgIUDwi1cTksZoy10dO4fNkWQm483EswDQYJKoZIhvcNAQEL
BQAwdDELMAkGA1UEBhMCVVMxEzARBgNVBAgTCkNhbGlmb3JuaWExFjAUBgNVBAcT
DU1vdW50YWluIFZpZXcxFDASBgNVBAoTC0dvb2dsZSBJbmMuMRAwDgYDVQQLEwdB
bmRyb2lkMRAwDgYDVQQDEwdBbmRyb2lkMB4XDTE4MTIyMjEwMTk1NVoXDTQ4MTIy
MjEwMTk1NVowdDELMAkGA1UEBhMCVVMxEzARBgNVBAgTCkNhbGlmb3JuaWExFjAU
BgNVBAcTDU1vdW50YWluIFZpZXcxFDASBgNVBAoTC0dvb2dsZSBJbmMuMRAwDgYD
VQQLEwdBbmRyb2lkMRAwDgYDVQQDEwdBbmRyb2lkMIICIjANBgkqhkiG9w0BAQEF
AAOCAg8AMIICCgKCAgEA1c12Ujq/GCJ3MrpIwdHRgVIOJYQcgakKlHwyEkOQwC3r
fIaKFN2wpWghZGlmVoTDY1SveBssWb/2F7l2VcNm3gYDyqkzInGh0fe9e8Il5Trr
CVvuWLftJavK9JnIlpRmvz13qh7OF+dj+qweDr3hVirtgoeUr8RvSCNee9RJlOtw
GTJtk/zQ3qZHo7zFMd9muvCkFLvT/RRR4Z8wI1qiRftr81iogXxrWPamlS2dv5OZ
3YKHbfRCusH6s937XF63HDf3tzrnSlClfBkaRe3/2QqsZ9rD3JvZCEBjDFtWXAE0
EyOTB+yxJ90IBoMRX1PIwuaQPBC/fxJ2mlNs8k+w/2W03xTpjCNvKBkUnaC24IVd
vMXXd6Hk9VMgeJinUQA+YBtFP3AUSDsDxj9n0V8CV+8VQ3mi8297rM1qCzI+9fyf
xPQ4+QlCLsud3jfVGSmz9+OOkF/0hksMCilWWkL21WfDGBYD85wgpUijKTIYs5c2
RQEAHv7QMCPRzU4lq/13WHEweM62GA9DOL/E7TfdQVrtvQAA6j+VNoOIc0dYPzW2
WLqmuCQH9P71zf5Ks+d/glTd4+sfCkLoaZi3a/ZuKR4mDdICaybZ1PcpaAmJeoEz
pbwVUNRM5hbPtRl4wfKRlcwt9qAEDhB/0rkeJ8Ofo978SGhs8SJout5nzFUbxK8C
AwEAAaMQMA4wDAYDVR0TBAUwAwEB/zANBgkqhkiG9w0BAQsFAAOCAgEAQewh6LVu
tKl4xmCHEmWz42dwoIA/E2Lqt/eyjyiXW/8qMXlCx+BvQLxw+q8cK5Ypgm0VLOeW
eM/4hBqxmBJAV7N2d081j3HKfevNFU7SxX6UHqbh2jTVU/r478ij6qZM5aVhkZww
DsLDHv2U4+cZh81uMvmZd+jYBK8MfHK9F1n/DEMDCuIItJDylGPU1QxAtp2sUc6X
tXRgZDckVFAp+SnGZW/VJ7w3c5Eb/T3aglSoJ4sX0wD34qDeTSSKkgWQoURVWrao
aL1nzSV1xDq3P5eiohEVJao6LkjxE5KvbaKHgOFa0Wu5nrpwVBF1unSHVH7mEH+Z
T5f9oA0oH+0mMrPwNmwWDOgTKhnoSwWnmnV/MArnN9CEAljGAFsGxwBRBuBXAzx0
2Kikwf5wI30g1QRAsJf/Jb+lnOYMP4W/m/C5VSFGITjg8JDDVpCaEyHsHpysglr1
LCLWXSDu+XcMMKekbJHQ7W3uN0HOTe/Zeel3stLjk6SdGktdd7smdPn6yLsrKsWp
Ez399D0pG1yVxfuZ7kGNMkEsG36luVmgWxzjfwblewci8lvPe8uvIHqP6UhbrdAP
J+ZM+olEDL83kBts74+NycNtUuXb36FAoX3bskXVjGztmfF2gRYLL+1UEdjocW06
Ge8QD2K4k6xv3G8caA9PRBDAQ7zA15AZ+Qw=
-----END CERTIFICATE-----

