Certificate:
    Data:
        Version: 3 (0x2)
        Serial Number: 1280018253 (0x4c4b874d)
    Signature Algorithm: sha1WithRSAEncryption
        Issuer: C=US, ST=CA, L=San Francisco, O=Skimble Inc, OU=Skimble, CN=Gabriel Vanrenen
        Validity
            Not Before: Jul 25 00:37:33 2010 GMT
            Not After : Nov 25 00:37:33 3008 GMT
        Subject: C=US, ST=CA, L=San Francisco, O=Skimble Inc, OU=Skimble, CN=Gabriel Vanrenen
        Subject Public Key Info:
            Public Key Algorithm: rsaEncryption
                Public-Key: (1024 bit)
                Modulus:
                    00:87:ed:b0:df:64:4a:a6:9a:74:50:21:09:10:ee:
                    b4:71:19:f3:97:4e:fb:2b:fc:ac:dd:a8:b3:21:3d:
                    1a:19:0f:37:8f:ce:d6:6e:a0:c2:bf:ad:5d:13:c2:
                    7f:f9:89:a2:4c:8c:28:6c:e1:e8:aa:a3:27:0d:0f:
                    76:9a:c0:e6:16:0a:db:f7:95:7e:47:63:da:2f:93:
                    7b:d3:ac:15:a1:05:f6:44:11:ee:36:96:58:94:70:
                    fe:34:4c:0c:94:6a:f5:0c:99:bd:c8:05:10:f0:b6:
                    e7:f8:21:c6:a5:02:c0:2d:64:e9:17:18:3b:ef:f7:
                    60:fc:c2:1b:1d:25:ea:f8:63
                Exponent: 65537 (0x10001)
    Signature Algorithm: sha1WithRSAEncryption
         41:03:1d:6b:0d:85:32:74:7d:3d:c1:71:33:ae:a9:eb:1d:d0:
         b6:57:fa:5f:89:81:e9:62:be:53:6e:a4:ad:c0:40:17:41:a3:
         62:47:d8:6a:d6:00:8c:75:72:98:7f:ed:8e:a9:ce:e4:39:a1:
         1d:7a:8e:ce:0b:8b:59:cc:47:37:85:bb:12:82:d8:91:b8:06:
         e1:c2:d7:fb:60:29:13:c2:da:30:db:33:cc:f0:79:48:cd:1e:
         47:38:97:35:51:d4:71:04:1b:e5:14:2a:f3:bc:5a:62:a5:9d:
         fe:9a:63:c3:51:c0:8b:8c:83:50:6c:e3:d4:b4:86:31:18:01:
         62:2c
-----BEGIN CERTIFICATE-----
MIICYzCCAcygAwIBAgIETEuHTTANBgkqhkiG9w0BAQUFADB1MQswCQYDVQQGEwJV
UzELMAkGA1UECBMCQ0ExFjAUBgNVBAcTDVNhbiBGcmFuY2lzY28xFDASBgNVBAoT
C1NraW1ibGUgSW5jMRAwDgYDVQQLEwdTa2ltYmxlMRkwFwYDVQQDExBHYWJyaWVs
IFZhbnJlbmVuMCAXDTEwMDcyNTAwMzczM1oYDzMwMDgxMTI1MDAzNzMzWjB1MQsw
CQYDVQQGEwJVUzELMAkGA1UECBMCQ0ExFjAUBgNVBAcTDVNhbiBGcmFuY2lzY28x
FDASBgNVBAoTC1NraW1ibGUgSW5jMRAwDgYDVQQLEwdTa2ltYmxlMRkwFwYDVQQD
ExBHYWJyaWVsIFZhbnJlbmVuMIGfMA0GCSqGSIb3DQEBAQUAA4GNADCBiQKBgQCH
7bDfZEqmmnRQIQkQ7rRxGfOXTvsr/KzdqLMhPRoZDzePztZuoMK/rV0Twn/5iaJM
jChs4eiqoycND3aawOYWCtv3lX5HY9ovk3vTrBWhBfZEEe42lliUcP40TAyUavUM
mb3IBRDwtuf4IcalAsAtZOkXGDvv92D8whsdJer4YwIDAQABMA0GCSqGSIb3DQEB
BQUAA4GBAEEDHWsNhTJ0fT3BcTOuqesd0LZX+l+JgelivlNupK3AQBdBo2JH2GrW
AIx1cph/7Y6pzuQ5oR16js4Li1nMRzeFuxKC2JG4BuHC1/tgKRPC2jDbM8zweUjN
Hkc4lzVR1HEEG+UUKvO8WmKlnf6aY8NRwIuMg1Bs49S0hjEYAWIs
-----END CERTIFICATE-----

