Certificate:
    Data:
        Version: 3 (0x2)
        Serial Number:
            50:d9:e2:f8:e9:f7:90:2d:79:1c:52:e8:12:bb:29:6a:b8:8c:71:09
    Signature Algorithm: sha256WithRSAEncryption
        Issuer: C=US, ST=California, L=Mountain View, O=Google Inc., OU=Android, CN=Android
        Validity
            Not Before: Oct 14 18:46:56 2019 GMT
            Not After : Oct 14 18:46:56 2049 GMT
        Subject: C=US, ST=California, L=Mountain View, O=Google Inc., OU=Android, CN=Android
        Subject Public Key Info:
            Public Key Algorithm: rsaEncryption
                Public-Key: (4096 bit)
                Modulus:
                    00:b9:e1:87:8a:93:e2:fb:f8:53:54:98:4d:5e:95:
                    d4:76:c1:57:78:8a:c7:37:47:46:af:c7:c0:99:32:
                    e2:89:f6:9c:b6:75:fe:bf:83:82:1a:ab:4a:f5:56:
                    ef:c2:1b:7d:5f:ef:72:8d:20:f6:09:80:a3:88:2b:
                    d6:ee:82:f7:af:f2:9e:ae:31:33:fe:30:57:d0:31:
                    e8:37:8b:cc:57:e9:67:af:78:e2:d5:d6:ef:52:e1:
                    72:82:83:9d:da:40:73:f1:e9:a5:ad:52:08:d1:46:
                    9e:1b:c4:7a:89:26:1d:c8:53:73:b4:40:3f:b3:c2:
                    8f:bd:1c:74:d0:35:82:71:ba:57:3a:e0:19:df:2c:
                    4a:61:25:83:28:95:1c:22:d4:e4:85:16:d7:09:60:
                    7b:ab:67:6d:12:e3:60:13:a0:d0:98:ec:78:bc:bb:
                    b0:b3:58:a3:01:41:ab:34:0c:5c:0d:4f:8f:98:36:
                    9e:cf:d3:4e:6c:55:d3:ae:6d:a1:96:a6:c0:ba:8f:
                    6c:d5:d3:d0:8a:fa:22:25:0b:7d:67:76:22:92:2b:
                    c7:8e:9b:82:10:4d:81:b3:17:37:d1:9d:af:23:42:
                    ff:c2:5d:5c:9b:6d:81:d1:12:f6:e8:63:d0:d7:b7:
                    f5:eb:93:9d:d6:c0:02:07:70:82:9e:b7:20:05:bd:
                    35:4b:65:bc:c8:54:9c:7e:58:65:ca:71:e6:19:34:
                    f3:37:56:ff:3e:c4:47:0f:eb:f5:2a:77:11:16:ed:
                    38:f2:cc:a3:c5:54:af:22:5e:2c:90:75:24:cc:c8:
                    13:a3:54:43:b7:fc:1c:ca:d0:a7:67:47:ad:ac:f3:
                    01:e8:d9:02:b1:91:33:da:16:0e:40:e1:6c:57:78:
                    70:8f:30:19:2c:97:80:63:3f:df:e4:6f:8f:df:66:
                    59:cc:ad:d2:7c:8a:a4:ec:cd:48:31:63:96:99:f5:
                    b9:5a:f3:e3:ad:9b:ab:b9:4f:4c:ad:12:ca:c8:dc:
                    be:5e:eb:5b:67:29:91:d0:de:cb:cd:32:c5:2f:88:
                    89:55:cf:36:04:67:cf:b3:ca:d5:91:77:95:42:7a:
                    e8:40:e5:0b:63:ad:02:0f:07:79:6c:2f:a8:d0:29:
                    b5:ba:b6:ae:99:ee:e8:af:d5:e5:89:29:ad:01:a4:
                    08:c3:b7:6c:f7:15:c5:d4:0a:e2:3e:3b:7a:0c:97:
                    bb:7f:48:fd:82:94:cd:1e:5d:74:b3:27:33:b0:01:
                    f2:66:c5:3e:52:37:03:c4:0b:25:cd:d2:0a:ee:8a:
                    d6:0b:d9:f6:aa:4d:f6:51:2a:42:61:74:ac:1e:62:
                    56:fa:7b:46:d5:18:99:c7:a8:e1:6c:63:f1:a0:10:
                    42:02:cd
                Exponent: 65537 (0x10001)
        X509v3 extensions:
            X509v3 Basic Constraints: 
                CA:TRUE
    Signature Algorithm: sha256WithRSAEncryption
         9e:1d:82:7d:04:c0:1e:39:96:16:c9:5b:f6:b8:e9:e6:d0:2f:
         da:53:f1:5d:98:98:02:18:65:84:bb:04:76:1e:30:bd:6b:28:
         b8:46:fa:ca:30:75:13:37:92:74:5b:81:5c:80:ab:46:3b:73:
         9a:a0:f1:e0:c6:0f:ae:2e:a2:10:f8:3e:65:bb:d0:d5:4c:9f:
         3e:c9:53:b5:6b:8a:12:7d:1d:bd:b2:70:e3:87:55:00:c1:0f:
         36:2b:a2:3c:bf:7b:4c:b3:53:94:d9:31:da:02:f0:cc:28:23:
         7d:c4:ac:4d:6e:12:41:08:b5:c9:33:13:21:c5:f3:9c:57:f4:
         f5:96:0d:35:e6:2e:40:6e:58:3e:f0:8c:03:8b:f1:24:1e:db:
         23:ed:b8:8d:db:29:84:b7:1f:03:a1:98:f4:96:c6:df:dd:5a:
         f2:cd:89:73:24:f2:c1:b2:16:11:af:2c:ab:03:ee:a1:92:c1:
         2a:84:45:66:a7:3a:df:f0:bb:65:1c:f9:db:ff:cf:56:32:3a:
         12:1e:77:73:48:90:63:d1:52:33:c2:e9:1c:0b:14:1a:7d:73:
         61:bd:77:77:9b:6a:89:75:8d:b2:4e:96:1c:50:f2:ea:67:92:
         99:e0:e3:5a:d0:cb:df:ce:9c:bc:c6:54:9b:0f:7b:7b:6b:ee:
         3d:d3:79:53:e1:f4:ee:50:dc:4d:ad:07:3b:c9:57:69:bd:92:
         01:e9:4f:14:ad:d9:fe:5c:aa:97:0f:ee:c0:be:0c:17:90:ad:
         6e:a8:5f:ea:9a:79:79:72:20:2c:1c:ef:03:0b:a6:10:bd:7e:
         16:dc:05:bc:a6:13:43:7b:cc:ad:2e:2d:fa:b5:aa:70:02:0f:
         0a:1a:39:06:36:50:c1:5e:83:4b:a0:74:bf:b2:3a:8b:42:85:
         c1:de:02:18:cb:16:75:a0:99:07:f1:d2:fd:7e:52:8d:ca:a7:
         b5:7b:7a:01:91:12:84:d1:6a:2e:bb:58:a1:d4:71:74:d5:3f:
         cd:6c:4d:6e:f0:f8:f0:0c:2d:a5:4a:c7:4d:3f:41:1c:94:68:
         2f:ab:f9:70:b9:fb:45:bc:a1:24:51:46:e2:75:09:c0:e2:b7:
         4d:28:3c:e0:ff:cf:b9:05:c0:dc:f8:e4:f2:66:aa:17:06:87:
         b3:ee:4e:99:ca:87:82:f4:59:5c:f4:86:89:ba:7d:32:e6:80:
         4a:4e:97:e4:25:fa:7a:3a:8e:bf:e6:08:a4:2b:71:bc:1b:ea:
         4e:2a:a4:46:8a:b4:be:ad:f8:d2:a3:15:00:ff:3b:cb:cb:0d:
         5e:4f:a9:19:a0:22:cc:e4:f5:63:48:cd:b4:46:f1:1f:f0:91:
         d2:14:c2:44:e8:e5:72:76
-----BEGIN CERTIFICATE-----
MIIFhjCCA26gAwIBAgIUUNni+On3kC15HFLoErspariMcQkwDQYJKoZIhvcNAQEL
BQAwdDELMAkGA1UEBhMCVVMxEzARBgNVBAgTCkNhbGlmb3JuaWExFjAUBgNVBAcT
DU1vdW50YWluIFZpZXcxFDASBgNVBAoTC0dvb2dsZSBJbmMuMRAwDgYDVQQLEwdB
bmRyb2lkMRAwDgYDVQQDEwdBbmRyb2lkMB4XDTE5MTAxNDE4NDY1NloXDTQ5MTAx
NDE4NDY1NlowdDELMAkGA1UEBhMCVVMxEzARBgNVBAgTCkNhbGlmb3JuaWExFjAU
BgNVBAcTDU1vdW50YWluIFZpZXcxFDASBgNVBAoTC0dvb2dsZSBJbmMuMRAwDgYD
VQQLEwdBbmRyb2lkMRAwDgYDVQQDEwdBbmRyb2lkMIICIjANBgkqhkiG9w0BAQEF
AAOCAg8AMIICCgKCAgEAueGHipPi+/hTVJhNXpXUdsFXeIrHN0dGr8fAmTLiifac
tnX+v4OCGqtK9Vbvwht9X+9yjSD2CYCjiCvW7oL3r/KerjEz/jBX0DHoN4vMV+ln
r3ji1dbvUuFygoOd2kBz8emlrVII0UaeG8R6iSYdyFNztEA/s8KPvRx00DWCcbpX
OuAZ3yxKYSWDKJUcItTkhRbXCWB7q2dtEuNgE6DQmOx4vLuws1ijAUGrNAxcDU+P
mDaez9NObFXTrm2hlqbAuo9s1dPQivoiJQt9Z3YikivHjpuCEE2Bsxc30Z2vI0L/
wl1cm22B0RL26GPQ17f165Od1sACB3CCnrcgBb01S2W8yFScflhlynHmGTTzN1b/
PsRHD+v1KncRFu048syjxVSvIl4skHUkzMgTo1RDt/wcytCnZ0etrPMB6NkCsZEz
2hYOQOFsV3hwjzAZLJeAYz/f5G+P32ZZzK3SfIqk7M1IMWOWmfW5WvPjrZuruU9M
rRLKyNy+XutbZymR0N7LzTLFL4iJVc82BGfPs8rVkXeVQnroQOULY60CDwd5bC+o
0Cm1uraume7or9XliSmtAaQIw7ds9xXF1AriPjt6DJe7f0j9gpTNHl10syczsAHy
ZsU+UjcDxAslzdIK7orWC9n2qk32USpCYXSsHmJW+ntG1RiZx6jhbGPxoBBCAs0C
AwEAAaMQMA4wDAYDVR0TBAUwAwEB/zANBgkqhkiG9w0BAQsFAAOCAgEAnh2CfQTA
HjmWFslb9rjp5tAv2lPxXZiYAhhlhLsEdh4wvWsouEb6yjB1EzeSdFuBXICrRjtz
mqDx4MYPri6iEPg+ZbvQ1UyfPslTtWuKEn0dvbJw44dVAMEPNiuiPL97TLNTlNkx
2gLwzCgjfcSsTW4SQQi1yTMTIcXznFf09ZYNNeYuQG5YPvCMA4vxJB7bI+24jdsp
hLcfA6GY9JbG391a8s2JcyTywbIWEa8sqwPuoZLBKoRFZqc63/C7ZRz52//PVjI6
Eh53c0iQY9FSM8LpHAsUGn1zYb13d5tqiXWNsk6WHFDy6meSmeDjWtDL386cvMZU
mw97e2vuPdN5U+H07lDcTa0HO8lXab2SAelPFK3Z/lyqlw/uwL4MF5Ctbqhf6pp5
eXIgLBzvAwumEL1+FtwFvKYTQ3vMrS4t+rWqcAIPCho5BjZQwV6DS6B0v7I6i0KF
wd4CGMsWdaCZB/HS/X5SjcqntXt6AZEShNFqLrtYodRxdNU/zWxNbvD48AwtpUrH
TT9BHJRoL6v5cLn7RbyhJFFG4nUJwOK3TSg84P/PuQXA3Pjk8maqFwaHs+5OmcqH
gvRZXPSGibp9MuaASk6X5CX6ejqOv+YIpCtxvBvqTiqkRoq0vq340qMVAP87y8sN
Xk+pGaAizOT1Y0jNtEbxH/CR0hTCROjlcnY=
-----END CERTIFICATE-----

