Certificate:
    Data:
        Version: 3 (0x2)
        Serial Number: 2042248200 (0x79ba3c08)
    Signature Algorithm: sha1WithRSAEncryption
        Issuer: CN=Leo Laslandes, OU=Developper, O=GTM, L=Chiang Mai, ST=Chiang Mai, C=TH
        Validity
            Not Before: Jun 10 04:50:14 2016 GMT
            Not After : May 29 04:50:14 2066 GMT
        Subject: CN=Leo Laslandes, OU=Developper, O=GTM, L=Chiang Mai, ST=Chiang Mai, C=TH
        Subject Public Key Info:
            Public Key Algorithm: rsaEncryption
                Public-Key: (1024 bit)
                Modulus:
                    00:81:6b:88:f8:e4:da:f5:68:d6:44:0f:c9:8b:31:
                    90:10:51:0c:74:51:02:1e:3b:94:fb:05:f8:11:db:
                    60:7f:5f:bd:9c:e2:5c:94:27:d3:42:24:cc:cd:c9:
                    d3:e0:18:c3:ca:3a:b4:3d:3c:08:7a:3a:03:50:a8:
                    2c:ac:7b:2f:25:7b:33:05:12:8c:bb:e4:48:4e:48:
                    fe:39:6d:6d:da:9c:32:36:ee:3c:1f:a1:74:2e:5d:
                    5e:d9:87:cc:4f:da:72:58:22:8a:dc:ea:19:94:2d:
                    ba:0f:99:a3:20:45:8d:0b:56:30:d9:b5:4e:9e:21:
                    21:9f:f5:d5:1d:9e:5c:4c:29
                Exponent: 65537 (0x10001)
    Signature Algorithm: sha1WithRSAEncryption
         04:e9:8b:c2:e9:10:27:ec:fa:fb:36:29:ad:ce:80:a7:8f:d5:
         c1:67:ff:d4:44:c3:78:00:d8:39:64:f5:93:4f:d9:99:71:05:
         01:d8:05:6a:6f:b9:83:7a:ac:df:b5:53:8d:de:8f:55:d1:4f:
         48:82:1e:79:40:7b:0b:f0:05:c8:26:02:c4:d4:85:96:6f:7d:
         2c:04:5b:1c:73:71:0f:d1:28:ca:75:10:d7:6f:31:5d:bc:f2:
         fe:42:04:49:a9:d1:bc:32:70:8f:15:99:c8:61:dc:d3:08:e7:
         03:5f:dc:92:2d:82:27:db:6d:8b:ed:03:4c:d2:e6:58:87:45:
         8b:d5
-----BEGIN CERTIFICATE-----
MIICXTCCAcagAwIBAgIEebo8CDANBgkqhkiG9w0BAQUFADByMRYwFAYDVQQDDA1M
ZW8gTGFzbGFuZGVzMRMwEQYDVQQLDApEZXZlbG9wcGVyMQwwCgYDVQQKDANHVE0x
EzARBgNVBAcMCkNoaWFuZyBNYWkxEzARBgNVBAgMCkNoaWFuZyBNYWkxCzAJBgNV
BAYTAlRIMCAXDTE2MDYxMDA0NTAxNFoYDzIwNjYwNTI5MDQ1MDE0WjByMRYwFAYD
VQQDDA1MZW8gTGFzbGFuZGVzMRMwEQYDVQQLDApEZXZlbG9wcGVyMQwwCgYDVQQK
DANHVE0xEzARBgNVBAcMCkNoaWFuZyBNYWkxEzARBgNVBAgMCkNoaWFuZyBNYWkx
CzAJBgNVBAYTAlRIMIGfMA0GCSqGSIb3DQEBAQUAA4GNADCBiQKBgQCBa4j45Nr1
aNZED8mLMZAQUQx0UQIeO5T7BfgR22B/X72c4lyUJ9NCJMzNydPgGMPKOrQ9PAh6
OgNQqCysey8lezMFEoy75EhOSP45bW3anDI27jwfoXQuXV7Zh8xP2nJYIorc6hmU
LboPmaMgRY0LVjDZtU6eISGf9dUdnlxMKQIDAQABMA0GCSqGSIb3DQEBBQUAA4GB
AATpi8LpECfs+vs2Ka3OgKeP1cFn/9REw3gA2Dlk9ZNP2ZlxBQHYBWpvuYN6rN+1
U43ej1XRT0iCHnlAewvwBcgmAsTUhZZvfSwEWxxzcQ/RKMp1ENdvMV288v5CBEmp
0bwycI8Vmchh3NMI5wNf3JItgifbbYvtA0zS5liHRYvV
-----END CERTIFICATE-----

